(lp0
(lp1
S'AID362'
p2
aS'AID604'
p3
aS'AID456'
p4
aS'AID688'
p5
aS'AID373'
p6
aS'AID746'
p7
aS'AID687'
p8
aa(lp9
I144
aI154
aI153
aI154
aI154
aI154
aI153
aa(lp10
I112
aI122
aI121
aI121
aI123
aI122
aI122
aa.